target datalayout = "e-m:e-p270:32:32-p271:32:32-p272:64:64-i64:64-i128:128-f80:128-n8:16:32:64-S128"
target triple = "x86_64-pc-linux-gnu"

%struct.FunctionCallInfoBaseData = type { ptr, ptr, ptr, i32, i8, i16, [0 x %struct.NullableDatum] }
%struct.NullableDatum = type { i64, i8 }
%struct.spgChooseIn = type { i64, i64, i32, i8, i8, i64, i32, ptr }
%struct.spgChooseOut = type { i32, %union.anon }
%union.anon = type { %struct.anon.1 }
%struct.anon.1 = type { i8, i64, i32, ptr, i32, i8, i64 }
%struct.anon = type { i32, i32, i64 }
%struct.RangeType = type { i32, i32 }
%struct.RangeBound = type { i64, i8, i8, i8 }

; Function Attrs: inlinehint nounwind uwtable
define internal i64 @PointerGetDatum(ptr noundef %0) #2 {
  %2 = alloca ptr, align 8
  store ptr %0, ptr %2, align 8
  %3 = load ptr, ptr %2, align 8
  %4 = ptrtoint ptr %3 to i64
  ret i64 %4
}

; Function Attrs: nounwind uwtable
define internal signext i16 @getQuadrant(ptr noundef %0, ptr noundef %1, ptr noundef %2) #0 {
  %4 = alloca i16, align 2
  %5 = alloca ptr, align 8
  %6 = alloca ptr, align 8
  %7 = alloca ptr, align 8
  %8 = alloca %struct.RangeBound, align 8
  %9 = alloca %struct.RangeBound, align 8
  %10 = alloca i8, align 1
  %11 = alloca %struct.RangeBound, align 8
  %12 = alloca %struct.RangeBound, align 8
  %13 = alloca i8, align 1
  %14 = alloca i32, align 4
  store ptr %0, ptr %5, align 8
  store ptr %1, ptr %6, align 8
  store ptr %2, ptr %7, align 8
  call void @llvm.lifetime.start.p0(i64 16, ptr %8) #5
  call void @llvm.lifetime.start.p0(i64 16, ptr %9) #5
  call void @llvm.lifetime.start.p0(i64 1, ptr %10) #5
  call void @llvm.lifetime.start.p0(i64 16, ptr %11) #5
  call void @llvm.lifetime.start.p0(i64 16, ptr %12) #5
  call void @llvm.lifetime.start.p0(i64 1, ptr %13) #5
  %15 = load ptr, ptr %5, align 8
  %16 = load ptr, ptr %6, align 8
  call void @range_deserialize(ptr noundef %15, ptr noundef %16, ptr noundef %8, ptr noundef %9, ptr noundef %10)
  %17 = load ptr, ptr %5, align 8
  %18 = load ptr, ptr %7, align 8
  call void @range_deserialize(ptr noundef %17, ptr noundef %18, ptr noundef %11, ptr noundef %12, ptr noundef %13)
  %19 = load i8, ptr %13, align 1, !range !4, !noundef !5
  %20 = trunc i8 %19 to i1
  br i1 %20, label %21, label %22

21:                                               ; preds = %3
  store i16 5, ptr %4, align 2
  store i32 1, ptr %14, align 4
  br label %38

22:                                               ; preds = %3
  %23 = load ptr, ptr %5, align 8
  %24 = call i32 @range_cmp_bounds(ptr noundef %23, ptr noundef %11, ptr noundef %8)
  %25 = icmp sge i32 %24, 0
  br i1 %25, label %26, label %32

26:                                               ; preds = %22
  %27 = load ptr, ptr %5, align 8
  %28 = call i32 @range_cmp_bounds(ptr noundef %27, ptr noundef %12, ptr noundef %9)
  %29 = icmp sge i32 %28, 0
  br i1 %29, label %30, label %31

30:                                               ; preds = %26
  store i16 1, ptr %4, align 2
  store i32 1, ptr %14, align 4
  br label %38

31:                                               ; preds = %26
  store i16 2, ptr %4, align 2
  store i32 1, ptr %14, align 4
  br label %38

32:                                               ; preds = %22
  %33 = load ptr, ptr %5, align 8
  %34 = call i32 @range_cmp_bounds(ptr noundef %33, ptr noundef %12, ptr noundef %9)
  %35 = icmp sge i32 %34, 0
  br i1 %35, label %36, label %37

36:                                               ; preds = %32
  store i16 4, ptr %4, align 2
  store i32 1, ptr %14, align 4
  br label %38

37:                                               ; preds = %32
  store i16 3, ptr %4, align 2
  store i32 1, ptr %14, align 4
  br label %38

38:                                               ; preds = %37, %36, %31, %30, %21
  call void @llvm.lifetime.end.p0(i64 1, ptr %13) #5
  call void @llvm.lifetime.end.p0(i64 16, ptr %12) #5
  call void @llvm.lifetime.end.p0(i64 16, ptr %11) #5
  call void @llvm.lifetime.end.p0(i64 1, ptr %10) #5
  call void @llvm.lifetime.end.p0(i64 16, ptr %9) #5
  call void @llvm.lifetime.end.p0(i64 16, ptr %8) #5
  %39 = load i16, ptr %4, align 2
  ret i16 %39
}

; Function Attrs: inlinehint nounwind uwtable
define internal i64 @RangeTypePGetDatum(ptr noundef %0) #2 {
  %2 = alloca ptr, align 8
  store ptr %0, ptr %2, align 8
  %3 = load ptr, ptr %2, align 8
  %4 = call i64 @PointerGetDatum(ptr noundef %3)
  ret i64 %4
}

; Function Attrs: inlinehint nounwind uwtable
define internal ptr @DatumGetRangeTypeP(i64 noundef %0) #2 {
  %2 = alloca i64, align 8
  store i64 %0, ptr %2, align 8
  %3 = load i64, ptr %2, align 8
  %4 = call ptr @DatumGetPointer(i64 noundef %3)
  %5 = call ptr @pg_detoast_datum(ptr noundef %4)
  ret ptr %5
}

; Function Attrs: inlinehint nounwind uwtable
define internal ptr @DatumGetPointer(i64 noundef %0) #2 {
  %2 = alloca i64, align 8
  store i64 %0, ptr %2, align 8
  %3 = load i64, ptr %2, align 8
  %4 = inttoptr i64 %3 to ptr
  ret ptr %4
}

; Function Attrs: nounwind uwtable
define dso_local i64 @spg_range_quad_choose(ptr noundef %0) #0 {
  %2 = alloca i64, align 8
  %3 = alloca ptr, align 8
  %4 = alloca ptr, align 8
  %5 = alloca ptr, align 8
  %6 = alloca ptr, align 8
  %7 = alloca ptr, align 8
  %8 = alloca i16, align 2
  %9 = alloca ptr, align 8
  %10 = alloca i32, align 4
  store ptr %0, ptr %3, align 8
  call void @llvm.lifetime.start.p0(i64 8, ptr %4) #5
  %11 = load ptr, ptr %3, align 8
  %12 = getelementptr inbounds nuw %struct.FunctionCallInfoBaseData, ptr %11, i32 0, i32 6
  %13 = getelementptr inbounds [0 x %struct.NullableDatum], ptr %12, i64 0, i64 0
  %14 = getelementptr inbounds nuw %struct.NullableDatum, ptr %13, i32 0, i32 0
  %15 = load i64, ptr %14, align 8
  %16 = call ptr @DatumGetPointer(i64 noundef %15)
  store ptr %16, ptr %4, align 8
  call void @llvm.lifetime.start.p0(i64 8, ptr %5) #5
  %17 = load ptr, ptr %3, align 8
  %18 = getelementptr inbounds nuw %struct.FunctionCallInfoBaseData, ptr %17, i32 0, i32 6
  %19 = getelementptr inbounds [0 x %struct.NullableDatum], ptr %18, i64 0, i64 1
  %20 = getelementptr inbounds nuw %struct.NullableDatum, ptr %19, i32 0, i32 0
  %21 = load i64, ptr %20, align 8
  %22 = call ptr @DatumGetPointer(i64 noundef %21)
  store ptr %22, ptr %5, align 8
  call void @llvm.lifetime.start.p0(i64 8, ptr %6) #5
  %23 = load ptr, ptr %4, align 8
  %24 = getelementptr inbounds nuw %struct.spgChooseIn, ptr %23, i32 0, i32 0
  %25 = load i64, ptr %24, align 8
  %26 = call ptr @DatumGetRangeTypeP(i64 noundef %25)
  store ptr %26, ptr %6, align 8
  call void @llvm.lifetime.start.p0(i64 8, ptr %7) #5
  call void @llvm.lifetime.start.p0(i64 2, ptr %8) #5
  call void @llvm.lifetime.start.p0(i64 8, ptr %9) #5
  %27 = load ptr, ptr %4, align 8
  %28 = getelementptr inbounds nuw %struct.spgChooseIn, ptr %27, i32 0, i32 3
  %29 = load i8, ptr %28, align 4, !range !4, !noundef !5
  %30 = trunc i8 %29 to i1
  br i1 %30, label %31, label %42

31:                                               ; preds = %1
  %32 = load ptr, ptr %5, align 8
  %33 = getelementptr inbounds nuw %struct.spgChooseOut, ptr %32, i32 0, i32 0
  store i32 1, ptr %33, align 8
  %34 = load ptr, ptr %5, align 8
  %35 = getelementptr inbounds nuw %struct.spgChooseOut, ptr %34, i32 0, i32 1
  %36 = getelementptr inbounds nuw %struct.anon, ptr %35, i32 0, i32 1
  store i32 0, ptr %36, align 4
  %37 = load ptr, ptr %6, align 8
  %38 = call i64 @RangeTypePGetDatum(ptr noundef %37)
  %39 = load ptr, ptr %5, align 8
  %40 = getelementptr inbounds nuw %struct.spgChooseOut, ptr %39, i32 0, i32 1
  %41 = getelementptr inbounds nuw %struct.anon, ptr %40, i32 0, i32 2
  store i64 %38, ptr %41, align 8
  store i64 0, ptr %2, align 8
  store i32 1, ptr %10, align 4
  br label %102

42:                                               ; preds = %1
  %43 = load ptr, ptr %3, align 8
  %44 = load ptr, ptr %6, align 8
  %45 = getelementptr inbounds nuw %struct.RangeType, ptr %44, i32 0, i32 1
  %46 = load i32, ptr %45, align 4
  %47 = call ptr @range_get_typcache(ptr noundef %43, i32 noundef %46)
  store ptr %47, ptr %9, align 8
  %48 = load ptr, ptr %4, align 8
  %49 = getelementptr inbounds nuw %struct.spgChooseIn, ptr %48, i32 0, i32 4
  %50 = load i8, ptr %49, align 1, !range !4, !noundef !5
  %51 = trunc i8 %50 to i1
  br i1 %51, label %77, label %52

52:                                               ; preds = %42
  %53 = load ptr, ptr %5, align 8
  %54 = getelementptr inbounds nuw %struct.spgChooseOut, ptr %53, i32 0, i32 0
  store i32 1, ptr %54, align 8
  %55 = load ptr, ptr %6, align 8
  %56 = call signext i8 @range_get_flags(ptr noundef %55)
  %57 = sext i8 %56 to i32
  %58 = and i32 %57, 1
  %59 = icmp ne i32 %58, 0
  br i1 %59, label %60, label %64

60:                                               ; preds = %52
  %61 = load ptr, ptr %5, align 8
  %62 = getelementptr inbounds nuw %struct.spgChooseOut, ptr %61, i32 0, i32 1
  %63 = getelementptr inbounds nuw %struct.anon, ptr %62, i32 0, i32 0
  store i32 0, ptr %63, align 8
  br label %68

64:                                               ; preds = %52
  %65 = load ptr, ptr %5, align 8
  %66 = getelementptr inbounds nuw %struct.spgChooseOut, ptr %65, i32 0, i32 1
  %67 = getelementptr inbounds nuw %struct.anon, ptr %66, i32 0, i32 0
  store i32 1, ptr %67, align 8
  br label %68

68:                                               ; preds = %64, %60
  %69 = load ptr, ptr %5, align 8
  %70 = getelementptr inbounds nuw %struct.spgChooseOut, ptr %69, i32 0, i32 1
  %71 = getelementptr inbounds nuw %struct.anon, ptr %70, i32 0, i32 1
  store i32 1, ptr %71, align 4
  %72 = load ptr, ptr %6, align 8
  %73 = call i64 @RangeTypePGetDatum(ptr noundef %72)
  %74 = load ptr, ptr %5, align 8
  %75 = getelementptr inbounds nuw %struct.spgChooseOut, ptr %74, i32 0, i32 1
  %76 = getelementptr inbounds nuw %struct.anon, ptr %75, i32 0, i32 2
  store i64 %73, ptr %76, align 8
  store i64 0, ptr %2, align 8
  store i32 1, ptr %10, align 4
  br label %102

77:                                               ; preds = %42
  %78 = load ptr, ptr %4, align 8
  %79 = getelementptr inbounds nuw %struct.spgChooseIn, ptr %78, i32 0, i32 5
  %80 = load i64, ptr %79, align 8
  %81 = call ptr @DatumGetRangeTypeP(i64 noundef %80)
  store ptr %81, ptr %7, align 8
  %82 = load ptr, ptr %9, align 8
  %83 = load ptr, ptr %7, align 8
  %84 = load ptr, ptr %6, align 8
  %85 = call signext i16 @getQuadrant(ptr noundef %82, ptr noundef %83, ptr noundef %84)
  store i16 %85, ptr %8, align 2
  %86 = load ptr, ptr %5, align 8
  %87 = getelementptr inbounds nuw %struct.spgChooseOut, ptr %86, i32 0, i32 0
  store i32 1, ptr %87, align 8
  %88 = load i16, ptr %8, align 2
  %89 = sext i16 %88 to i32
  %90 = sub i32 %89, 1
  %91 = load ptr, ptr %5, align 8
  %92 = getelementptr inbounds nuw %struct.spgChooseOut, ptr %91, i32 0, i32 1
  %93 = getelementptr inbounds nuw %struct.anon, ptr %92, i32 0, i32 0
  store i32 %90, ptr %93, align 8
  %94 = load ptr, ptr %5, align 8
  %95 = getelementptr inbounds nuw %struct.spgChooseOut, ptr %94, i32 0, i32 1
  %96 = getelementptr inbounds nuw %struct.anon, ptr %95, i32 0, i32 1
  store i32 1, ptr %96, align 4
  %97 = load ptr, ptr %6, align 8
  %98 = call i64 @RangeTypePGetDatum(ptr noundef %97)
  %99 = load ptr, ptr %5, align 8
  %100 = getelementptr inbounds nuw %struct.spgChooseOut, ptr %99, i32 0, i32 1
  %101 = getelementptr inbounds nuw %struct.anon, ptr %100, i32 0, i32 2
  store i64 %98, ptr %101, align 8
  store i64 0, ptr %2, align 8
  store i32 1, ptr %10, align 4
  br label %102

102:                                              ; preds = %77, %68, %31
  call void @llvm.lifetime.end.p0(i64 8, ptr %9) #5
  call void @llvm.lifetime.end.p0(i64 2, ptr %8) #5
  call void @llvm.lifetime.end.p0(i64 8, ptr %7) #5
  call void @llvm.lifetime.end.p0(i64 8, ptr %6) #5
  call void @llvm.lifetime.end.p0(i64 8, ptr %5) #5
  call void @llvm.lifetime.end.p0(i64 8, ptr %4) #5
  %103 = load i64, ptr %2, align 8
  ret i64 %103
}