; Function Attrs: nounwind uwtable
define dso_local noundef i64 @spg_range_quad_choose(ptr noundef %0) local_unnamed_addr #2 {
  %2 = alloca %struct.RangeBound, align 8
  %3 = alloca %struct.RangeBound, align 8
  %4 = alloca i8, align 1
  %5 = alloca %struct.RangeBound, align 8
  %6 = alloca %struct.RangeBound, align 8
  %7 = alloca i8, align 1
  %8 = getelementptr inbounds nuw i8, ptr %0, i64 32
  %9 = load i64, ptr %8, align 8
  %10 = inttoptr i64 %9 to ptr
  %11 = getelementptr inbounds nuw i8, ptr %0, i64 48
  %12 = load i64, ptr %11, align 8
  %13 = inttoptr i64 %12 to ptr
  %14 = load i64, ptr %10, align 8
  %15 = inttoptr i64 %14 to ptr
  %16 = tail call ptr @pg_detoast_datum(ptr noundef %15) #6
  %17 = getelementptr inbounds nuw i8, ptr %10, i64 20
  %18 = load i8, ptr %17, align 4, !range !4, !noundef !5
  %19 = trunc nuw i8 %18 to i1
  br i1 %19, label %20, label %21

20:                                               ; preds = %1
  store i32 1, ptr %13, align 8
  br label %49

21:                                               ; preds = %1
  %22 = getelementptr inbounds nuw i8, ptr %16, i64 4
  %23 = load i32, ptr %22, align 4
  %24 = tail call ptr @range_get_typcache(ptr noundef nonnull %0, i32 noundef %23) #6
  %25 = getelementptr inbounds nuw i8, ptr %10, i64 21
  %26 = load i8, ptr %25, align 1, !range !4, !noundef !5
  %27 = trunc nuw i8 %26 to i1
  br i1 %27, label %33, label %28

28:                                               ; preds = %21
  store i32 1, ptr %13, align 8
  %29 = tail call signext i8 @range_get_flags(ptr noundef nonnull %16) #6
  %30 = and i8 %29, 1
  %31 = xor i8 %30, 1
  %spec.select = zext nneg i8 %31 to i32
  %32 = getelementptr inbounds nuw i8, ptr %13, i64 8
  store i32 %spec.select, ptr %32, align 8
  br label %49

33:                                               ; preds = %21
  %34 = getelementptr inbounds nuw i8, ptr %10, i64 24
  %35 = load i64, ptr %34, align 8
  %36 = inttoptr i64 %35 to ptr
  %37 = tail call ptr @pg_detoast_datum(ptr noundef %36) #6
  call void @llvm.lifetime.start.p0(i64 16, ptr nonnull %2) #6
  call void @llvm.lifetime.start.p0(i64 16, ptr nonnull %3) #6
  call void @llvm.lifetime.start.p0(i64 1, ptr nonnull %4) #6
  call void @llvm.lifetime.start.p0(i64 16, ptr nonnull %5) #6
  call void @llvm.lifetime.start.p0(i64 16, ptr nonnull %6) #6
  call void @llvm.lifetime.start.p0(i64 1, ptr nonnull %7) #6
  call void @range_deserialize(ptr noundef %24, ptr noundef %37, ptr noundef nonnull %2, ptr noundef nonnull %3, ptr noundef nonnull %4) #6
  call void @range_deserialize(ptr noundef %24, ptr noundef nonnull %16, ptr noundef nonnull %5, ptr noundef nonnull %6, ptr noundef nonnull %7) #6
  %38 = load i8, ptr %7, align 1, !range !4, !noundef !5
  %39 = trunc nuw i8 %38 to i1
  br i1 %39, label %getQuadrant.exit, label %40

40:                                               ; preds = %33
  %41 = call i32 @range_cmp_bounds(ptr noundef %24, ptr noundef nonnull %5, ptr noundef nonnull %2) #6
  %42 = icmp sgt i32 %41, -1
  %43 = call i32 @range_cmp_bounds(ptr noundef %24, ptr noundef nonnull %6, ptr noundef nonnull %3) #6
  %44 = icmp sgt i32 %43, -1
  br i1 %42, label %45, label %46

45:                                               ; preds = %40
  %..i = select i1 %44, i32 1, i32 2
  br label %getQuadrant.exit

46:                                               ; preds = %40
  %.7.i = select i1 %44, i32 4, i32 3
  br label %getQuadrant.exit

getQuadrant.exit:                                 ; preds = %33, %45, %46
  %.0.i = phi i32 [ 5, %33 ], [ %..i, %45 ], [ %.7.i, %46 ]
  call void @llvm.lifetime.end.p0(i64 1, ptr nonnull %7) #6
  call void @llvm.lifetime.end.p0(i64 16, ptr nonnull %6) #6
  call void @llvm.lifetime.end.p0(i64 16, ptr nonnull %5) #6
  call void @llvm.lifetime.end.p0(i64 1, ptr nonnull %4) #6
  call void @llvm.lifetime.end.p0(i64 16, ptr nonnull %3) #6
  call void @llvm.lifetime.end.p0(i64 16, ptr nonnull %2) #6
  store i32 1, ptr %13, align 8
  %47 = add nsw i32 %.0.i, -1
  %48 = getelementptr inbounds nuw i8, ptr %13, i64 8
  store i32 %47, ptr %48, align 8
  br label %49

49:                                               ; preds = %getQuadrant.exit, %28, %20
  %.sink = phi i32 [ 1, %getQuadrant.exit ], [ 1, %28 ], [ 0, %20 ]
  %50 = getelementptr inbounds nuw i8, ptr %13, i64 12
  store i32 %.sink, ptr %50, align 4
  %51 = ptrtoint ptr %16 to i64
  %52 = getelementptr inbounds nuw i8, ptr %13, i64 16
  store i64 %51, ptr %52, align 8
  ret i64 0
}